TN:
SF:/workspace/include/BusSystem.h
FNL:0,13,13
FNA:0,0,_ZN10CBusSystem5SStopD0Ev
FNA:0,28,_ZN10CBusSystem5SStopD2Ev
FNL:1,19,19
FNA:1,0,_ZN10CBusSystem6SRouteD0Ev
FNA:1,66,_ZN10CBusSystem6SRouteD2Ev
FNL:2,25,25
FNA:2,0,_ZN10CBusSystemD0Ev
FNA:2,27,_ZN10CBusSystemD2Ev
FNF:3
FNH:3
DA:13,28
DA:19,66
DA:25,27
LF:3
LH:3
end_of_record
TN:
SF:/workspace/include/DataFactory.h
FNL:0,11,11
FNA:0,0,_ZN12CDataFactoryD0Ev
FNA:0,3,_ZN12CDataFactoryD2Ev
FNF:1
FNH:1
DA:11,3
LF:1
LH:1
end_of_record
TN:
SF:/workspace/include/DataSink.h
FNL:0,8,8
FNA:0,0,_ZN9CDataSinkD0Ev
FNA:0,8,_ZN9CDataSinkD2Ev
FNF:1
FNH:1
DA:8,8
LF:1
LH:1
end_of_record
TN:
SF:/workspace/include/DataSource.h
FNL:0,8,8
FNA:0,0,_ZN11CDataSourceD0Ev
FNA:0,113,_ZN11CDataSourceD2Ev
FNF:1
FNH:1
DA:8,113
LF:1
LH:1
end_of_record
TN:
SF:/workspace/include/PathRouter.h
FNL:0,16,16
FNA:0,0,_ZN11CPathRouterD0Ev
FNA:0,50,_ZN11CPathRouterD2Ev
FNF:1
FNH:1
DA:16,50
LF:1
LH:1
end_of_record
TN:
SF:/workspace/include/StreetMap.h
FNL:0,19,19
FNA:0,178,_ZN10CStreetMap9SLocationC2Edd
FNL:1,20,22
FNA:1,13,_ZNK10CStreetMap9SLocationeqERKS0_
FNL:2,29,29
FNA:2,0,_ZN10CStreetMap5SNodeD0Ev
FNA:2,91,_ZN10CStreetMap5SNodeD2Ev
FNL:3,39,39
FNA:3,0,_ZN10CStreetMap4SWayD0Ev
FNA:3,42,_ZN10CStreetMap4SWayD2Ev
FNL:4,49,49
FNA:4,0,_ZN10CStreetMapD0Ev
FNA:4,37,_ZN10CStreetMapD2Ev
FNF:5
FNH:5
DA:19,178
DA:20,13
DA:21,13
DA:29,91
DA:39,42
DA:49,37
LF:6
LH:6
end_of_record
TN:
SF:/workspace/include/TransportationPlanner.h
FNL:0,15,15
FNA:0,0,_ZN22CTransportationPlanner14SConfigurationD0Ev
FNA:0,4,_ZN22CTransportationPlanner14SConfigurationD2Ev
FNL:1,25,25
FNA:1,0,_ZN22CTransportationPlannerD0Ev
FNA:1,4,_ZN22CTransportationPlannerD2Ev
FNF:2
FNH:2
DA:15,4
DA:25,4
LF:2
LH:2
end_of_record
TN:
SF:/workspace/include/TransportationPlannerConfig.h
FNL:0,15,30
FNA:0,4,_ZN28STransportationPlannerConfigC2ESt10shared_ptrI10CStreetMapES0_I10CBusSystemEddddi
FNL:1,32,34
FNA:1,4,_ZNK28STransportationPlannerConfig9StreetMapEv
FNL:2,36,38
FNA:2,4,_ZNK28STransportationPlannerConfig9BusSystemEv
FNL:3,40,42
FNA:3,0,_ZNK28STransportationPlannerConfig9WalkSpeedEv
FNL:4,44,46
FNA:4,0,_ZNK28STransportationPlannerConfig9BikeSpeedEv
FNL:5,48,50
FNA:5,0,_ZNK28STransportationPlannerConfig17DefaultSpeedLimitEv
FNL:6,52,54
FNA:6,0,_ZNK28STransportationPlannerConfig11BusStopTimeEv
FNL:7,56,58
FNA:7,0,_ZNK28STransportationPlannerConfig14PrecomputeTimeEv
FNF:8
FNH:3
DA:15,4
DA:21,4
DA:22,4
DA:23,4
DA:24,4
DA:25,4
DA:26,4
DA:27,4
DA:28,4
DA:30,4
DA:32,4
DA:33,4
DA:36,4
DA:37,4
DA:40,0
DA:41,0
DA:44,0
DA:45,0
DA:48,0
DA:49,0
DA:52,0
DA:53,0
DA:56,0
DA:57,0
LF:24
LH:14
end_of_record
TN:
SF:/workspace/include/XMLEntity.h
FNL:0,26,33
FNA:0,1416,_ZNK10SXMLEntity14AttributeValueERKNSt7__cxx1112basic_stringIcSt11char_traitsIcESaIcEEE
FNF:1
FNH:1
DA:26,1416
DA:27,2299
DA:28,2295
DA:29,1412
DA:32,4
LF:5
LH:5
end_of_record
TN:
SF:/workspace/src/BusSystemIndexer.cpp
FNL:0,108,117
FNA:0,7,_ZNK17CBusSystemIndexer15SImplementation15RoutesByNodeIDsEmmRSt13unordered_setISt10shared_ptrIN10CBusSystem6SRouteEESt4hashIS5_ESt8equal_toIS5_ESaIS5_EE
FNL:1,119,127
FNA:1,6,_ZNK17CBusSystemIndexer15SImplementation19RouteBetweenNodeIDsEmm
FNL:2,130,133
FNA:2,27,_ZN17CBusSystemIndexerC2ESt10shared_ptrI10CBusSystemE
FNL:3,135,137
FNA:3,27,_ZN17CBusSystemIndexerD2Ev
FNL:4,139,142
FNA:4,3,_ZNK17CBusSystemIndexer9StopCountEv
FNL:5,144,147
FNA:5,3,_ZNK17CBusSystemIndexer10RouteCountEv
FNL:6,149,152
FNA:6,2,_ZNK17CBusSystemIndexer17SortedStopByIndexEm
FNL:7,15,20
FNA:7,90,_ZNK17CBusSystemIndexer15SImplementation15SNodeIDPairHashclERKSt4pairImmE
FNL:8,154,157
FNA:8,2,_ZNK17CBusSystemIndexer18SortedRouteByIndexEm
FNL:9,159,162
FNA:9,2,_ZNK17CBusSystemIndexer12StopByNodeIDEm
FNL:10,164,167
FNA:10,1,_ZNK17CBusSystemIndexer15RoutesByNodeIDsEmmRSt13unordered_setISt10shared_ptrIN10CBusSystem6SRouteEESt4hashIS4_ESt8equal_toIS4_ESaIS4_EE
FNL:11,169,172
FNA:11,6,_ZNK17CBusSystemIndexer19RouteBetweenNodeIDsEmm
FNL:12,24,62
FNA:12,27,_ZN17CBusSystemIndexer15SImplementationC2ESt10shared_ptrI10CBusSystemE
FNL:13,33,34
FNA:13,39,_ZZN17CBusSystemIndexer15SImplementationC4ESt10shared_ptrI10CBusSystemEENKUlS1_INS2_5SStopEES5_E_clES5_S5_
FNL:14,40,41
FNA:14,13,_ZZN17CBusSystemIndexer15SImplementationC4ESt10shared_ptrI10CBusSystemEENKUlS1_INS2_6SRouteEES5_E_clES5_S5_
FNL:15,64,66
FNA:15,27,_ZN17CBusSystemIndexer15SImplementationD2Ev
FNL:16,68,71
FNA:16,5,_ZNK17CBusSystemIndexer15SImplementation9StopCountEv
FNL:17,73,76
FNA:17,5,_ZNK17CBusSystemIndexer15SImplementation10RouteCountEv
FNL:18,78,85
FNA:18,2,_ZNK17CBusSystemIndexer15SImplementation17SortedStopByIndexEm
FNL:19,87,94
FNA:19,2,_ZNK17CBusSystemIndexer15SImplementation18SortedRouteByIndexEm
FNL:20,96,106
FNA:20,2,_ZNK17CBusSystemIndexer15SImplementation12StopByNodeIDEm
FNF:21
FNH:21
DA:15,90
DA:17,90
DA:18,90
DA:19,90
DA:24,27
DA:25,27
DA:26,27
DA:27,55
DA:29,28
DA:30,28
DA:31,28
DA:32,28
DA:33,27
DA:34,39
DA:35,41
DA:37,14
DA:38,14
DA:39,14
DA:40,27
DA:41,13
DA:42,41
DA:44,66
DA:46,52
DA:47,52
DA:48,52
DA:49,52
DA:50,52
DA:51,52
DA:52,52
DA:54,76
DA:58,14
DA:61,14
DA:62,65
DA:64,27
DA:66,27
DA:68,5
DA:70,5
DA:73,5
DA:75,5
DA:78,2
DA:80,2
DA:82,0
DA:84,2
DA:87,2
DA:89,2
DA:91,0
DA:93,2
DA:96,2
DA:98,2
DA:100,2
DA:104,0
DA:108,7
DA:110,7
DA:111,7
DA:113,7
DA:114,7
DA:116,0
DA:119,6
DA:121,6
DA:122,6
DA:124,6
DA:126,0
DA:127,6
DA:130,27
DA:132,27
DA:133,27
DA:135,27
DA:137,27
DA:139,3
DA:141,3
DA:144,3
DA:146,3
DA:149,2
DA:151,2
DA:154,2
DA:156,2
DA:159,2
DA:161,2
DA:164,1
DA:166,1
DA:169,6
DA:171,6
LF:82
LH:77
end_of_record
TN:
SF:/workspace/src/CSVBusSystem.cpp
FNL:0,110,156
FNA:0,27,_ZN13CCSVBusSystem15SImplementation10ReadRoutesESt10shared_ptrI10CDSVReaderE
FNL:1,12,14
FNA:1,0,_ZN13CCSVBusSystem15SImplementation5SStopD0Ev
FNA:1,28,_ZN13CCSVBusSystem15SImplementation5SStopD2Ev
FNL:2,158,163
FNA:2,27,_ZN13CCSVBusSystem15SImplementationC2ESt10shared_ptrI10CDSVReaderES3_
FNL:3,16,18
FNA:3,80,_ZNK13CCSVBusSystem15SImplementation5SStop2IDEv
FNL:4,165,168
FNA:4,60,_ZNK13CCSVBusSystem15SImplementation9StopCountEv
FNL:5,170,173
FNA:5,78,_ZNK13CCSVBusSystem15SImplementation10RouteCountEv
FNL:6,175,182
FNA:6,28,_ZNK13CCSVBusSystem15SImplementation11StopByIndexEm
FNL:7,184,193
FNA:7,176,_ZNK13CCSVBusSystem15SImplementation8StopByIDEm
FNL:8,195,201
FNA:8,24,_ZNK13CCSVBusSystem15SImplementation12RouteByIndexEm
FNL:9,20,22
FNA:9,206,_ZNK13CCSVBusSystem15SImplementation5SStop6NodeIDEv
FNL:10,203,211
FNA:10,0,_ZNK13CCSVBusSystem15SImplementation11RouteByNameERKNSt7__cxx1112basic_stringIcSt11char_traitsIcESaIcEEE
FNL:11,228,230
FNA:11,27,_ZN13CCSVBusSystemC2ESt10shared_ptrI10CDSVReaderES2_
FNL:12,234,236
FNA:12,0,_ZN13CCSVBusSystemD0Ev
FNA:12,27,_ZN13CCSVBusSystemD2Ev
FNL:13,238,241
FNA:13,60,_ZNK13CCSVBusSystem9StopCountEv
FNL:14,243,246
FNA:14,78,_ZNK13CCSVBusSystem10RouteCountEv
FNL:15,248,251
FNA:15,28,_ZNK13CCSVBusSystem11StopByIndexEm
FNL:16,253,256
FNA:16,176,_ZNK13CCSVBusSystem8StopByIDEm
FNL:17,258,261
FNA:17,24,_ZNK13CCSVBusSystem12RouteByIndexEm
FNL:18,263,266
FNA:18,0,_ZNK13CCSVBusSystem11RouteByNameERKNSt7__cxx1112basic_stringIcSt11char_traitsIcESaIcEEE
FNL:19,28,30
FNA:19,0,_ZN13CCSVBusSystem15SImplementation6SRouteD0Ev
FNA:19,66,_ZN13CCSVBusSystem15SImplementation6SRouteD2Ev
FNL:20,32,34
FNA:20,28,_ZNK13CCSVBusSystem15SImplementation6SRoute4NameB5cxx11Ev
FNL:21,36,38
FNA:21,112,_ZNK13CCSVBusSystem15SImplementation6SRoute9StopCountEv
FNL:22,40,46
FNA:22,182,_ZNK13CCSVBusSystem15SImplementation6SRoute9GetStopIDEm
FNL:23,55,99
FNA:23,27,_ZN13CCSVBusSystem15SImplementation9ReadStopsESt10shared_ptrI10CDSVReaderE
FNF:24
FNH:22
DA:12,28
DA:13,28
DA:14,28
DA:16,80
DA:17,80
DA:20,206
DA:21,206
DA:28,66
DA:30,66
DA:32,28
DA:33,28
DA:36,112
DA:37,112
DA:40,182
DA:41,182
DA:42,0
DA:44,182
DA:55,27
DA:57,27
DA:59,27
DA:62,27
DA:63,27
DA:64,81
DA:66,54
DA:68,27
DA:70,27
DA:72,27
DA:76,27
DA:78,0
DA:80,55
DA:82,28
DA:83,28
DA:84,28
DA:87,28
DA:88,28
DA:91,28
DA:93,28
DA:94,28
DA:96,27
DA:98,0
DA:99,27
DA:110,27
DA:111,27
DA:113,27
DA:115,27
DA:116,27
DA:119,81
DA:120,54
DA:121,27
DA:123,27
DA:124,27
DA:128,27
DA:129,0
DA:132,93
DA:134,66
DA:135,66
DA:136,66
DA:139,66
DA:142,66
DA:143,52
DA:146,14
DA:147,14
DA:148,14
DA:151,66
DA:153,27
DA:155,0
DA:156,27
DA:158,189
DA:160,27
DA:162,27
DA:163,27
DA:165,60
DA:166,60
DA:170,78
DA:171,78
DA:175,28
DA:176,28
DA:177,0
DA:179,28
DA:184,176
DA:185,176
DA:186,176
DA:189,0
DA:195,24
DA:196,24
DA:197,0
DA:199,24
DA:203,0
DA:204,0
DA:205,0
DA:208,0
DA:228,27
DA:229,27
DA:230,27
DA:234,27
DA:236,27
DA:238,60
DA:240,60
DA:243,78
DA:245,78
DA:248,28
DA:249,28
DA:253,176
DA:254,176
DA:258,24
DA:259,24
DA:263,0
DA:264,0
LF:108
LH:94
end_of_record
TN:
SF:/workspace/src/DSVReader.cpp
FNL:0,10,16
FNA:0,54,_ZN10CDSVReader15SImplementationC2ESt10shared_ptrI11CDataSourceEc
FNL:1,133,136
FNA:1,0,_ZNK10CDSVReader15SImplementation3EndEv
FNL:2,139,142
FNA:2,54,_ZN10CDSVReaderC2ESt10shared_ptrI11CDataSourceEc
FNL:3,144,146
FNA:3,54,_ZN10CDSVReaderD2Ev
FNL:4,148,151
FNA:4,202,_ZN10CDSVReader7ReadRowERSt6vectorINSt7__cxx1112basic_stringIcSt11char_traitsIcESaIcEEESaIS6_EE
FNL:5,153,156
FNA:5,0,_ZNK10CDSVReader3EndEv
FNL:6,18,20
FNA:6,54,_ZN10CDSVReader15SImplementationD2Ev
FNL:7,22,131
FNA:7,202,_ZN10CDSVReader15SImplementation7ReadRowERSt6vectorINSt7__cxx1112basic_stringIcSt11char_traitsIcESaIcEEESaIS7_EE
FNF:8
FNH:6
DA:10,54
DA:11,54
DA:12,54
DA:13,54
DA:14,54
DA:15,54
DA:16,54
DA:18,54
DA:20,54
DA:22,202
DA:29,202
DA:30,202
DA:31,202
DA:33,54
DA:35,0
DA:36,0
DA:37,0
DA:38,0
DA:42,54
DA:45,148
DA:46,148
DA:47,148
DA:49,0
DA:52,296
DA:54,296
DA:55,296
DA:56,296
DA:58,296
DA:61,0
DA:63,0
DA:64,0
DA:66,0
DA:68,0
DA:69,0
DA:70,0
DA:72,0
DA:74,0
DA:76,0
DA:79,0
DA:81,0
DA:83,0
DA:84,0
DA:89,0
DA:90,0
DA:91,0
DA:96,0
DA:102,1308
DA:104,1012
DA:105,1012
DA:108,296
DA:110,148
DA:112,94
DA:113,94
DA:117,54
DA:118,54
DA:119,54
DA:122,148
DA:124,148
DA:125,148
DA:128,0
DA:129,0
DA:130,0
DA:131,202
DA:133,0
DA:135,0
DA:139,54
DA:141,54
DA:142,54
DA:144,54
DA:146,54
DA:148,202
DA:150,202
DA:153,0
DA:155,0
LF:74
LH:44
end_of_record
TN:
SF:/workspace/src/DSVWriter.cpp
FNL:0,11,17
FNA:0,2,_ZN10CDSVWriter15SImplementationC2ESt10shared_ptrI9CDataSinkEcb
FNL:1,19,21
FNA:1,2,_ZN10CDSVWriter15SImplementationD2Ev
FNL:2,23,74
FNA:2,2,_ZN10CDSVWriter15SImplementation8WriteRowERKSt6vectorINSt7__cxx1112basic_stringIcSt11char_traitsIcESaIcEEESaIS7_EE
FNL:3,77,80
FNA:3,2,_ZN10CDSVWriterC2ESt10shared_ptrI9CDataSinkEcb
FNL:4,82,84
FNA:4,2,_ZN10CDSVWriterD2Ev
FNL:5,86,89
FNA:5,2,_ZN10CDSVWriter8WriteRowERKSt6vectorINSt7__cxx1112basic_stringIcSt11char_traitsIcESaIcEEESaIS6_EE
FNF:6
FNH:6
DA:11,2
DA:12,2
DA:13,2
DA:14,2
DA:15,2
DA:16,2
DA:17,2
DA:19,2
DA:21,2
DA:23,2
DA:28,2
DA:29,2
DA:30,2
DA:32,0
DA:34,2
DA:36,0
DA:38,5
DA:41,3
DA:42,3
DA:44,3
DA:46,2
DA:48,3
DA:50,3
DA:52,0
DA:54,3
DA:55,6
DA:57,3
DA:59,0
DA:61,3
DA:63,3
DA:66,3
DA:68,0
DA:70,3
DA:71,2
DA:73,2
DA:77,2
DA:79,2
DA:80,2
DA:82,2
DA:84,2
DA:86,2
DA:88,2
LF:42
LH:37
end_of_record
TN:
SF:/workspace/src/DijkstraPathRouter.cpp
FNL:0,15,17
FNA:0,50,_ZN19CDijkstraPathRouter15SImplementationC2Ev
FNL:1,163,166
FNA:1,50,_ZN19CDijkstraPathRouterC2Ev
FNL:2,168,170
FNA:2,0,_ZN19CDijkstraPathRouterD0Ev
FNA:2,50,_ZN19CDijkstraPathRouterD2Ev
FNL:3,172,175
FNA:3,63,_ZNK19CDijkstraPathRouter11VertexCountEv
FNL:4,177,180
FNA:4,149,_ZN19CDijkstraPathRouter9AddVertexESt3any
FNL:5,18,20
FNA:5,50,_ZN19CDijkstraPathRouter15SImplementationD2Ev
FNL:6,182,185
FNA:6,141,_ZNK19CDijkstraPathRouter12GetVertexTagEm
FNL:7,187,190
FNA:7,180,_ZN19CDijkstraPathRouter7AddEdgeEmmdb
FNL:8,192,195
FNA:8,0,_ZN19CDijkstraPathRouter10PrecomputeENSt6chrono10time_pointINS0_3_V212steady_clockENS0_8durationIlSt5ratioILl1ELl1000000000EEEEEE
FNL:9,197,200
FNA:9,48,_ZN19CDijkstraPathRouter16FindShortestPathEmmRSt6vectorImSaImEE
FNL:10,25,28
FNA:10,1225,_ZNK19CDijkstraPathRouter15SImplementation11VertexCountEv
FNL:11,30,37
FNA:11,149,_ZN19CDijkstraPathRouter15SImplementation9AddVertexESt3any
FNL:12,39,46
FNA:12,141,_ZNK19CDijkstraPathRouter15SImplementation12GetVertexTagEm
FNL:13,48,66
FNA:13,180,_ZN19CDijkstraPathRouter15SImplementation7AddEdgeEmmdb
FNL:14,68,71
FNA:14,0,_ZN19CDijkstraPathRouter15SImplementation10PrecomputeENSt6chrono10time_pointINS1_3_V212steady_clockENS1_8durationIlSt5ratioILl1ELl1000000000EEEEEE
FNL:15,73,160
FNA:15,48,_ZN19CDijkstraPathRouter15SImplementation16FindShortestPathEmmRSt6vectorImSaImEE
FNF:16
FNH:14
DA:15,50
DA:16,50
DA:17,50
DA:18,50
DA:20,50
DA:25,1225
DA:27,1225
DA:30,149
DA:32,149
DA:33,149
DA:34,149
DA:35,149
DA:36,298
DA:37,149
DA:39,141
DA:41,141
DA:43,141
DA:45,0
DA:48,180
DA:50,180
DA:52,0
DA:54,180
DA:56,180
DA:57,180
DA:59,112
DA:61,180
DA:63,0
DA:68,0
DA:70,0
DA:73,48
DA:76,48
DA:78,0
DA:79,0
DA:82,48
DA:83,48
DA:84,48
DA:85,48
DA:87,48
DA:88,48
DA:100,135
DA:101,675
DA:103,540
DA:105,206
DA:108,135
DA:110,48
DA:111,48
DA:113,87
DA:116,0
DA:118,87
DA:120,0
DA:123,277
DA:125,190
DA:126,190
DA:127,190
DA:128,487
DA:130,487
DA:132,190
DA:133,190
DA:136,190
DA:138,190
DA:140,144
DA:141,144
DA:144,190
DA:145,87
DA:146,87
DA:150,48
DA:151,116
DA:153,68
DA:154,68
DA:156,48
DA:159,48
DA:160,48
DA:163,50
DA:165,50
DA:166,50
DA:168,50
DA:170,50
DA:172,63
DA:174,63
DA:177,149
DA:179,149
DA:182,141
DA:184,141
DA:187,180
DA:189,180
DA:192,0
DA:194,0
DA:197,48
DA:199,48
LF:89
LH:78
end_of_record
TN:
SF:/workspace/src/DijkstraTransportationPlanner.cpp
FNL:0,188,190
FNA:0,4,_ZN30CDijkstraTransportationPlanner15SImplementationD2Ev
FNL:1,192,195
FNA:1,6,_ZNK30CDijkstraTransportationPlanner15SImplementation9NodeCountEv
FNL:2,197,205
FNA:2,4,_ZNK30CDijkstraTransportationPlanner15SImplementation17SortedNodeByIndexEm
FNL:3,207,228
FNA:3,2,_ZN30CDijkstraTransportationPlanner15SImplementation16FindShortestPathEmmRSt6vectorImSaImEE
FNL:4,230,314
FNA:4,3,_ZN30CDijkstraTransportationPlanner15SImplementation15FindFastestPathEmmRSt6vectorISt4pairIN22CTransportationPlanner19ETransportationModeEmESaIS5_EE
FNL:5,316,331
FNA:5,0,_ZNK30CDijkstraTransportationPlanner15SImplementation18GetPathDescriptionERKSt6vectorISt4pairIN22CTransportationPlanner19ETransportationModeEmESaIS5_EERS1_INSt7__cxx1112basic_stringIcSt11char_traitsIcESaIcEEESaISF_EE
FNL:6,333,336
FNA:6,4,_ZN30CDijkstraTransportationPlannerC2ESt10shared_ptrIN22CTransportationPlanner14SConfigurationEE
FNL:7,338,340
FNA:7,0,_ZN30CDijkstraTransportationPlannerD0Ev
FNA:7,4,_ZN30CDijkstraTransportationPlannerD2Ev
FNL:8,342,345
FNA:8,6,_ZNK30CDijkstraTransportationPlanner9NodeCountEv
FNL:9,347,350
FNA:9,4,_ZNK30CDijkstraTransportationPlanner17SortedNodeByIndexEm
FNL:10,352,355
FNA:10,2,_ZN30CDijkstraTransportationPlanner16FindShortestPathEmmRSt6vectorImSaImEE
FNL:11,357,360
FNA:11,3,_ZN30CDijkstraTransportationPlanner15FindFastestPathEmmRSt6vectorISt4pairIN22CTransportationPlanner19ETransportationModeEmESaIS4_EE
FNL:12,362,365
FNA:12,0,_ZNK30CDijkstraTransportationPlanner18GetPathDescriptionERKSt6vectorISt4pairIN22CTransportationPlanner19ETransportationModeEmESaIS4_EERS0_INSt7__cxx1112basic_stringIcSt11char_traitsIcESaIcEEESaISE_EE
FNL:13,57,60
FNA:13,17,_ZN30CDijkstraTransportationPlanner15SImplementation9compareIDERKSt10shared_ptrIN10CStreetMap5SNodeEES6_
FNL:14,62,186
FNA:14,4,_ZN30CDijkstraTransportationPlanner15SImplementationC2ESt10shared_ptrIN22CTransportationPlanner14SConfigurationEE
FNF:15
FNH:13
DA:57,17
DA:59,17
DA:62,4
DA:63,4
DA:65,4
DA:66,4
DA:67,4
DA:68,4
DA:70,16
DA:72,12
DA:73,12
DA:74,12
DA:76,12
DA:77,12
DA:78,12
DA:81,4
DA:83,10
DA:85,6
DA:87,18
DA:89,12
DA:91,12
DA:93,12
DA:94,12
DA:95,12
DA:96,12
DA:99,12
DA:100,24
DA:101,12
DA:102,36
DA:104,36
DA:107,6
DA:111,6
DA:114,2
DA:117,10
DA:119,8
DA:120,8
DA:121,8
DA:122,8
DA:123,8
DA:125,8
DA:126,8
DA:127,8
DA:128,8
DA:131,16
DA:134,8
DA:135,8
DA:138,8
DA:139,8
DA:140,8
DA:142,8
DA:144,8
DA:146,8
DA:147,8
DA:149,8
DA:150,8
DA:152,8
DA:154,8
DA:156,8
DA:158,8
DA:160,8
DA:161,24
DA:166,24
DA:168,0
DA:171,0
DA:174,8
DA:177,8
DA:182,0
DA:184,8
DA:185,2
DA:186,4
DA:188,4
DA:190,4
DA:192,6
DA:194,6
DA:197,4
DA:199,4
DA:201,4
DA:204,0
DA:207,2
DA:210,2
DA:213,1
DA:215,1
DA:216,1
DA:219,5
DA:221,4
DA:224,1
DA:225,1
DA:227,1
DA:230,3
DA:233,3
DA:234,3
DA:236,3
DA:237,3
DA:238,3
DA:243,3
DA:245,3
DA:247,2
DA:248,2
DA:250,2
DA:252,1
DA:254,0
DA:255,0
DA:257,1
DA:260,0
DA:265,1
DA:268,2
DA:270,1
DA:273,1
DA:274,1
DA:277,3
DA:280,2
DA:282,2
DA:285,2
DA:286,2
DA:287,2
DA:291,0
DA:292,0
DA:293,0
DA:297,1
DA:300,1
DA:303,1
DA:304,1
DA:306,2
DA:309,1
DA:310,1
DA:313,1
DA:314,3
DA:316,0
DA:318,0
DA:320,0
DA:322,0
DA:324,0
DA:326,0
DA:328,0
DA:330,0
DA:331,0
DA:333,4
DA:335,4
DA:336,4
DA:338,4
DA:340,4
DA:342,6
DA:344,6
DA:347,4
DA:349,4
DA:352,2
DA:354,2
DA:357,3
DA:359,3
DA:362,0
DA:364,0
LF:151
LH:130
end_of_record
TN:
SF:/workspace/src/FileDataFactory.cpp
FNL:0,15,17
FNA:0,3,_ZN16CFileDataFactory12CreateSourceERKNSt7__cxx1112basic_stringIcSt11char_traitsIcESaIcEEE
FNL:1,19,25
FNA:1,3,_ZN16CFileDataFactory10CreateSinkERKNSt7__cxx1112basic_stringIcSt11char_traitsIcESaIcEEE
FNL:2,6,13
FNA:2,3,_ZN16CFileDataFactoryC2ERKNSt7__cxx1112basic_stringIcSt11char_traitsIcESaIcEEE
FNF:3
FNH:3
DA:6,3
DA:7,3
DA:8,0
DA:11,3
DA:13,3
DA:15,3
DA:16,3
DA:19,3
DA:20,3
DA:21,3
DA:22,0
DA:24,3
LF:12
LH:10
end_of_record
TN:
SF:/workspace/src/FileDataSink.cpp
FNL:0,13,16
FNA:0,1,_ZN13CFileDataSink5WriteERKSt6vectorIcSaIcEE
FNL:1,4,6
FNA:1,3,_ZN13CFileDataSinkC2ERKNSt7__cxx1112basic_stringIcSt11char_traitsIcESaIcEEE
FNL:2,8,11
FNA:2,94,_ZN13CFileDataSink3PutERKc
FNF:3
FNH:3
DA:4,3
DA:5,3
DA:6,3
DA:8,94
DA:9,94
DA:10,94
DA:13,1
DA:14,1
DA:15,1
LF:9
LH:9
end_of_record
TN:
SF:/workspace/src/FileDataSource.cpp
FNL:0,10,12
FNA:0,3,_ZNK15CFileDataSource3EndEv
FNL:1,14,23
FNA:1,188,_ZN15CFileDataSource3GetERc
FNL:2,25,31
FNA:2,0,_ZN15CFileDataSource4PeekERc
FNL:3,3,8
FNA:3,3,_ZN15CFileDataSourceC2ERKNSt7__cxx1112basic_stringIcSt11char_traitsIcESaIcEEE
FNL:4,33,44
FNA:4,1,_ZN15CFileDataSource4ReadERSt6vectorIcSaIcEEm
FNF:5
FNH:4
DA:3,3
DA:4,3
DA:5,3
DA:6,3
DA:8,3
DA:10,3
DA:11,3
DA:14,188
DA:15,188
DA:16,0
DA:18,188
DA:19,188
DA:20,188
DA:22,188
DA:25,0
DA:26,0
DA:27,0
DA:29,0
DA:30,0
DA:33,1
DA:34,1
DA:35,0
DA:38,1
DA:39,1
DA:40,95
DA:41,94
DA:43,1
LF:27
LH:20
end_of_record
TN:
SF:/workspace/src/GeographicUtils.cpp
FNL:0,10,12
FNA:0,10,_ZN16SGeographicUtils16RadiansToDegreesEd
FNL:1,111,122
FNA:1,4,_ZN16SGeographicUtils34CalcualteExternalBisectorDirectionB5cxx11EN10CStreetMap9SLocationES1_S1_
FNL:2,124,145
FNA:2,1,_ZN16SGeographicUtils16CalculateExtentsERKSt6vectorIN10CStreetMap9SLocationESaIS2_EERS2_S7_
FNL:3,14,20
FNA:3,40,_ZN16SGeographicUtils12Normalize360Ed
FNL:4,147,156
FNA:4,1,_ZN16SGeographicUtils15FilterLocationsERKSt6vectorIN10CStreetMap9SLocationESaIS2_EERKS2_S8_
FNL:5,160,186
FNA:5,1,_ZN16SGeographicUtils14ConvertLLToDMSB5cxx11EN10CStreetMap9SLocationE
FNL:6,22,28
FNA:6,23,_ZN16SGeographicUtils15Normalize180180Ed
FNL:7,30,43
FNA:7,137,_ZN16SGeographicUtils24HaversineDistanceInMilesEN10CStreetMap9SLocationES1_
FNL:8,45,53
FNA:8,9,_ZN16SGeographicUtils16CalculateBearingEN10CStreetMap9SLocationES1_
FNL:9,59,74
FNA:9,4,_ZN16SGeographicUtils25CalculateExternalBisectorEdd
FNL:10,6,8
FNA:10,585,_ZN16SGeographicUtils16DegreesToRadiansEd
FNL:11,76,109
FNA:11,14,_ZN16SGeographicUtils18BearingToDirectionB5cxx11Ed
FNF:12
FNH:12
DA:6,585
DA:7,585
DA:10,10
DA:11,10
DA:14,40
DA:15,40
DA:16,40
DA:17,4
DA:19,40
DA:22,23
DA:23,23
DA:24,23
DA:25,6
DA:27,23
DA:30,137
DA:31,137
DA:32,137
DA:33,137
DA:34,137
DA:35,137
DA:36,137
DA:37,137
DA:38,137
DA:39,137
DA:40,137
DA:42,137
DA:45,9
DA:46,9
DA:47,9
DA:48,9
DA:49,9
DA:50,9
DA:51,9
DA:52,9
DA:59,4
DA:60,4
DA:61,4
DA:63,4
DA:64,4
DA:66,4
DA:68,4
DA:70,4
DA:71,2
DA:73,4
DA:76,14
DA:77,14
DA:78,14
DA:79,9
DA:80,2
DA:81,2
DA:83,2
DA:86,7
DA:87,6
DA:89,4
DA:90,2
DA:92,6
DA:96,5
DA:97,3
DA:98,4
DA:100,2
DA:103,2
DA:104,2
DA:106,2
DA:111,4
DA:112,4
DA:113,4
DA:115,4
DA:116,0
DA:119,4
DA:121,4
DA:124,1
DA:125,1
DA:126,1
DA:127,1
DA:128,1
DA:130,4
DA:131,3
DA:132,2
DA:134,3
DA:135,2
DA:137,3
DA:138,2
DA:140,3
DA:141,2
DA:144,1
DA:147,1
DA:148,1
DA:149,5
DA:150,4
DA:151,1
DA:153,3
DA:155,1
DA:160,1
DA:161,1
DA:162,1
DA:163,1
DA:164,1
DA:165,1
DA:167,1
DA:168,1
DA:169,1
DA:170,1
DA:171,1
DA:172,1
DA:173,1
DA:174,1
DA:176,1
DA:177,1
DA:178,1
DA:179,1
DA:180,1
DA:181,1
DA:182,1
DA:183,1
DA:185,2
DA:186,1
LF:116
LH:115
end_of_record
TN:
SF:/workspace/src/OpenStreetMap.cpp
FNL:0,108,116
FNA:0,322,_ZNK14COpenStreetMap15SImplementation4SWay12HasAttributeERKNSt7__cxx1112basic_stringIcSt11char_traitsIcESaIcEEE
FNL:1,118,130
FNA:1,180,_ZNK14COpenStreetMap15SImplementation4SWay12GetAttributeERKNSt7__cxx1112basic_stringIcSt11char_traitsIcESaIcEEE
FNL:2,138,245
FNA:2,37,_ZN14COpenStreetMap15SImplementation10ParseNodesESt10shared_ptrI10CXMLReaderER10SXMLEntity
FNL:3,20,20
FNA:3,0,_ZN14COpenStreetMap15SImplementation5SNodeD0Ev
FNA:3,91,_ZN14COpenStreetMap15SImplementation5SNodeD2Ev
FNL:4,21,24
FNA:4,940,_ZNK14COpenStreetMap15SImplementation5SNode2IDEv
FNL:5,247,394
FNA:5,34,_ZN14COpenStreetMap15SImplementation9ParseWaysESt10shared_ptrI10CXMLReaderER10SXMLEntity
FNL:6,26,29
FNA:6,216,_ZNK14COpenStreetMap15SImplementation5SNode8LocationEv
FNL:7,31,34
FNA:7,4,_ZNK14COpenStreetMap15SImplementation5SNode14AttributeCountEv
FNL:8,36,43
FNA:8,2,_ZNK14COpenStreetMap15SImplementation5SNode15GetAttributeKeyB5cxx11Em
FNL:9,396,433
FNA:9,37,_ZN14COpenStreetMap15SImplementation18ParseOpenStreetMapESt10shared_ptrI10CXMLReaderE
FNL:10,435,440
FNA:10,37,_ZN14COpenStreetMap15SImplementationC2ESt10shared_ptrI10CXMLReaderE
FNL:11,442,445
FNA:11,181,_ZNK14COpenStreetMap15SImplementation9NodeCountEv
FNL:12,447,450
FNA:12,73,_ZNK14COpenStreetMap15SImplementation8WayCountEv
FNL:13,45,53
FNA:13,21,_ZNK14COpenStreetMap15SImplementation5SNode12HasAttributeERKNSt7__cxx1112basic_stringIcSt11char_traitsIcESaIcEEE
FNL:14,452,458
FNA:14,233,_ZNK14COpenStreetMap15SImplementation11NodeByIndexEm
FNL:15,460,469
FNA:15,426,_ZNK14COpenStreetMap15SImplementation8NodeByIDEm
FNL:16,471,477
FNA:16,38,_ZNK14COpenStreetMap15SImplementation10WayByIndexEm
FNL:17,479,488
FNA:17,44,_ZNK14COpenStreetMap15SImplementation7WayByIDEm
FNL:18,491,494
FNA:18,37,_ZN14COpenStreetMapC2ESt10shared_ptrI10CXMLReaderE
FNL:19,496,498
FNA:19,0,_ZN14COpenStreetMapD0Ev
FNA:19,37,_ZN14COpenStreetMapD2Ev
FNL:20,500,503
FNA:20,181,_ZNK14COpenStreetMap9NodeCountEv
FNL:21,504,507
FNA:21,73,_ZNK14COpenStreetMap8WayCountEv
FNL:22,509,512
FNA:22,233,_ZNK14COpenStreetMap11NodeByIndexEm
FNL:23,514,517
FNA:23,217,_ZNK14COpenStreetMap8NodeByIDEm
FNL:24,518,521
FNA:24,38,_ZNK14COpenStreetMap10WayByIndexEm
FNL:25,523,526
FNA:25,2,_ZNK14COpenStreetMap7WayByIDEm
FNL:26,55,65
FNA:26,3,_ZNK14COpenStreetMap15SImplementation5SNode12GetAttributeERKNSt7__cxx1112basic_stringIcSt11char_traitsIcESaIcEEE
FNL:27,74,74
FNA:27,0,_ZN14COpenStreetMap15SImplementation4SWayD0Ev
FNA:27,42,_ZN14COpenStreetMap15SImplementation4SWayD2Ev
FNL:28,75,78
FNA:28,1,_ZNK14COpenStreetMap15SImplementation4SWay2IDEv
FNL:29,80,83
FNA:29,140,_ZNK14COpenStreetMap15SImplementation4SWay9NodeCountEv
FNL:30,85,92
FNA:30,148,_ZNK14COpenStreetMap15SImplementation4SWay9GetNodeIDEm
FNL:31,94,97
FNA:31,2,_ZNK14COpenStreetMap15SImplementation4SWay14AttributeCountEv
FNL:32,99,106
FNA:32,2,_ZNK14COpenStreetMap15SImplementation4SWay15GetAttributeKeyB5cxx11Em
FNF:33
FNH:33
DA:20,91
DA:21,940
DA:23,940
DA:26,216
DA:28,216
DA:31,4
DA:33,4
DA:36,2
DA:38,2
DA:40,2
DA:42,1
DA:45,21
DA:47,29
DA:49,13
DA:50,5
DA:52,16
DA:55,3
DA:57,3
DA:58,2
DA:59,3
DA:61,3
DA:62,2
DA:64,0
DA:74,42
DA:75,1
DA:77,1
DA:80,140
DA:82,140
DA:85,148
DA:87,148
DA:89,0
DA:91,148
DA:94,2
DA:96,2
DA:99,2
DA:101,2
DA:103,2
DA:105,1
DA:108,322
DA:110,473
DA:112,270
DA:113,119
DA:115,203
DA:118,180
DA:120,180
DA:122,290
DA:124,35
DA:126,35
DA:127,35
DA:129,0
DA:138,37
DA:140,37
DA:142,126
DA:145,124
DA:147,92
DA:148,92
DA:149,92
DA:150,92
DA:152,0
DA:156,93
DA:157,91
DA:158,91
DA:160,1
DA:162,1
DA:163,1
DA:165,91
DA:166,91
DA:167,91
DA:168,91
DA:170,91
DA:171,91
DA:172,91
DA:173,91
DA:175,1
DA:179,105
DA:182,103
DA:185,32
DA:186,16
DA:188,16
DA:190,2
DA:191,1
DA:192,1
DA:194,0
DA:197,16
DA:199,1
DA:201,15
DA:203,15
DA:206,15
DA:208,0
DA:214,0
DA:216,17
DA:218,87
DA:220,87
DA:225,0
DA:228,89
DA:229,89
DA:230,100
DA:234,32
DA:235,32
DA:239,2
DA:241,0
DA:244,2
DA:245,37
DA:247,34
DA:249,34
DA:250,34
DA:255,75
DA:257,34
DA:258,34
DA:264,41
DA:266,1
DA:270,74
DA:272,43
DA:273,43
DA:275,0
DA:279,44
DA:281,1
DA:283,1
DA:284,1
DA:285,42
DA:286,42
DA:287,42
DA:288,42
DA:290,1
DA:293,194
DA:296,194
DA:298,118
DA:299,118
DA:301,0
DA:305,236
DA:307,0
DA:309,0
DA:310,0
DA:311,118
DA:312,118
DA:314,0
DA:316,118
DA:318,118
DA:320,118
DA:323,0
DA:328,0
DA:330,118
DA:332,76
DA:334,70
DA:335,35
DA:336,35
DA:338,2
DA:339,1
DA:340,1
DA:342,0
DA:346,35
DA:348,34
DA:352,35
DA:354,35
DA:356,0
DA:361,0
DA:363,35
DA:365,41
DA:367,41
DA:373,0
DA:377,41
DA:378,41
DA:379,44
DA:384,31
DA:385,31
DA:387,41
DA:389,1
DA:391,0
DA:393,1
DA:394,34
DA:396,37
DA:398,37
DA:399,37
DA:402,37
DA:404,37
DA:406,37
DA:407,37
DA:412,37
DA:414,0
DA:417,37
DA:419,3
DA:422,34
DA:424,2
DA:427,32
DA:429,29
DA:432,3
DA:433,37
DA:435,37
DA:436,407
DA:437,37
DA:440,37
DA:442,181
DA:444,181
DA:447,73
DA:449,73
DA:452,233
DA:454,233
DA:455,0
DA:457,233
DA:460,426
DA:462,426
DA:463,426
DA:465,335
DA:468,91
DA:471,38
DA:473,38
DA:474,0
DA:476,38
DA:479,44
DA:481,44
DA:482,44
DA:484,2
DA:487,42
DA:491,37
DA:493,37
DA:494,37
DA:496,37
DA:498,37
DA:500,181
DA:502,181
DA:504,73
DA:506,73
DA:509,233
DA:511,233
DA:514,217
DA:516,217
DA:518,38
DA:520,38
DA:523,2
DA:525,2
LF:230
LH:205
end_of_record
TN:
SF:/workspace/src/StringDataSink.cpp
FNL:0,12,15
FNA:0,5,_ZN15CStringDataSink5WriteERKSt6vectorIcSaIcEE
FNL:1,3,5
FNA:1,12,_ZNK15CStringDataSink6StringB5cxx11Ev
FNL:2,7,10
FNA:2,7,_ZN15CStringDataSink3PutERKc
FNF:3
FNH:3
DA:3,12
DA:4,12
DA:7,7
DA:8,7
DA:9,7
DA:12,5
DA:13,5
DA:14,5
LF:8
LH:8
end_of_record
TN:
SF:/workspace/src/StringDataSource.cpp
FNL:0,11,18
FNA:0,16749,_ZN17CStringDataSource3GetERc
FNL:1,20,26
FNA:1,307,_ZN17CStringDataSource4PeekERc
FNL:2,28,40
FNA:2,54,_ZN17CStringDataSource4ReadERSt6vectorIcSaIcEEm
FNL:3,3,5
FNA:3,110,_ZN17CStringDataSourceC2ERKNSt7__cxx1112basic_stringIcSt11char_traitsIcESaIcEEE
FNL:4,7,9
FNA:4,1894,_ZNK17CStringDataSource3EndEv
FNF:5
FNH:5
DA:3,110
DA:5,110
DA:7,1894
DA:8,1894
DA:11,16749
DA:12,16749
DA:13,16706
DA:14,16706
DA:15,16706
DA:17,43
DA:20,307
DA:21,307
DA:22,305
DA:23,305
DA:25,2
DA:28,54
DA:29,54
DA:30,15450
DA:32,15438
DA:33,15396
DA:36,42
DA:39,54
LF:22
LH:22
end_of_record
TN:
SF:/workspace/src/StringUtils.cpp
FNL:0,109,120
FNA:0,14,_ZN11StringUtils6LStripERKNSt7__cxx1112basic_stringIcSt11char_traitsIcESaIcEEE
FNL:1,122,140
FNA:1,16,_ZN11StringUtils6RStripERKNSt7__cxx1112basic_stringIcSt11char_traitsIcESaIcEEE
FNL:2,142,145
FNA:2,9,_ZN11StringUtils5StripERKNSt7__cxx1112basic_stringIcSt11char_traitsIcESaIcEEE
FNL:3,149,175
FNA:3,10,_ZN11StringUtils6CenterERKNSt7__cxx1112basic_stringIcSt11char_traitsIcESaIcEEEic
FNL:4,177,194
FNA:4,9,_ZN11StringUtils5LJustERKNSt7__cxx1112basic_stringIcSt11char_traitsIcESaIcEEEic
FNL:5,196,214
FNA:5,9,_ZN11StringUtils5RJustERKNSt7__cxx1112basic_stringIcSt11char_traitsIcESaIcEEEic
FNL:6,216,256
FNA:6,15,_ZN11StringUtils7ReplaceERKNSt7__cxx1112basic_stringIcSt11char_traitsIcESaIcEEES7_S7_
FNL:7,258,299
FNA:7,18,_ZN11StringUtils5SplitERKNSt7__cxx1112basic_stringIcSt11char_traitsIcESaIcEEES7_
FNL:8,301,327
FNA:8,21,_ZN11StringUtils4JoinERKNSt7__cxx1112basic_stringIcSt11char_traitsIcESaIcEEERKSt6vectorIS5_SaIS5_EE
FNL:9,329,367
FNA:9,18,_ZN11StringUtils10ExpandTabsERKNSt7__cxx1112basic_stringIcSt11char_traitsIcESaIcEEEi
FNL:10,369,429
FNA:10,2920,_ZN11StringUtils12EditDistanceERKNSt7__cxx1112basic_stringIcSt11char_traitsIcESaIcEEES7_b
FNL:11,63,77
FNA:11,4,_ZN11StringUtils10CapitalizeERKNSt7__cxx1112basic_stringIcSt11char_traitsIcESaIcEEE
FNL:12,79,92
FNA:12,6,_ZN11StringUtils5UpperERKNSt7__cxx1112basic_stringIcSt11char_traitsIcESaIcEEE
FNL:13,8,61
FNA:13,21,_ZN11StringUtils5SliceERKNSt7__cxx1112basic_stringIcSt11char_traitsIcESaIcEEEll
FNL:14,94,107
FNA:14,8,_ZN11StringUtils5LowerERKNSt7__cxx1112basic_stringIcSt11char_traitsIcESaIcEEE
FNF:15
FNH:15
DA:8,21
DA:12,21
DA:13,21
DA:14,21
DA:20,21
DA:22,21
DA:24,7
DA:27,21
DA:29,2
DA:31,19
DA:33,2
DA:35,21
DA:37,1
DA:39,20
DA:41,1
DA:44,21
DA:46,16
DA:49,13
DA:50,13
DA:52,3
DA:55,13
DA:57,13
DA:60,0
DA:61,21
DA:63,4
DA:66,4
DA:67,4
DA:69,4
DA:70,39
DA:72,35
DA:76,4
DA:79,6
DA:81,6
DA:83,6
DA:85,75
DA:87,69
DA:91,6
DA:94,8
DA:96,8
DA:98,8
DA:100,89
DA:102,81
DA:106,8
DA:109,14
DA:111,14
DA:112,14
DA:113,14
DA:114,32
DA:116,18
DA:119,14
DA:120,14
DA:122,16
DA:124,16
DA:125,16
DA:127,14
DA:128,44
DA:130,32
DA:132,4
DA:134,30
DA:136,12
DA:139,4
DA:140,16
DA:142,9
DA:144,9
DA:149,10
DA:152,10
DA:153,10
DA:154,10
DA:156,10
DA:158,4
DA:161,6
DA:163,22
DA:165,16
DA:167,6
DA:168,6
DA:169,6
DA:171,6
DA:172,2
DA:174,6
DA:175,10
DA:177,9
DA:180,9
DA:181,9
DA:183,9
DA:185,3
DA:188,40
DA:190,34
DA:193,6
DA:194,9
DA:196,9
DA:199,9
DA:200,9
DA:202,9
DA:204,3
DA:207,40
DA:209,34
DA:211,6
DA:213,6
DA:214,9
DA:216,15
DA:219,15
DA:220,15
DA:221,15
DA:223,15
DA:225,2
DA:226,13
DA:228,11
DA:229,11
DA:234,128
DA:236,115
DA:238,110
DA:240,22
DA:241,22
DA:245,88
DA:250,5
DA:255,15
DA:258,18
DA:264,18
DA:266,18
DA:267,18
DA:268,18
DA:270,18
DA:272,2
DA:274,18
DA:276,163
DA:278,145
DA:280,140
DA:282,30
DA:283,30
DA:284,30
DA:288,110
DA:293,5
DA:297,18
DA:298,36
DA:299,18
DA:301,21
DA:306,21
DA:307,21
DA:308,21
DA:312,21
DA:314,2
DA:317,73
DA:319,53
DA:321,33
DA:323,53
DA:326,20
DA:327,21
DA:329,18
DA:332,18
DA:333,18
DA:335,2
DA:338,17
DA:339,214
DA:341,197
DA:344,97
DA:346,65
DA:349,32
DA:351,165
DA:353,7
DA:354,7
DA:358,158
DA:359,158
DA:360,158
DA:362,35
DA:366,17
DA:367,18
DA:369,2920
DA:372,2920
DA:374,1039
DA:376,240
DA:379,799
DA:381,1881
DA:383,713
DA:386,1168
DA:387,1168
DA:388,1168
DA:390,1
DA:391,1
DA:395,1168
DA:396,1168
DA:398,1168
DA:400,628
DA:404,540
DA:407,1168
DA:409,487
DA:413,681
DA:416,1168
DA:417,1168
DA:419,1168
DA:421,297
DA:424,871
DA:425,871
DA:426,871
DA:428,871
DA:429,1168
LF:195
LH:194
end_of_record
TN:
SF:/workspace/src/XMLReader.cpp
FNL:0,110,165
FNA:0,698,_ZN10CXMLReader15SImplementation10ReadEntityER10SXMLEntityb
FNL:1,13,25
FNA:1,358,_ZN10CXMLReader15SImplementation19StartElementHandlerEPvPKcPS3_
FNL:2,169,172
FNA:2,45,_ZN10CXMLReaderC2ESt10shared_ptrI11CDataSourceE
FNL:3,174,176
FNA:3,45,_ZN10CXMLReaderD2Ev
FNL:4,178,181
FNA:4,40,_ZNK10CXMLReader3EndEv
FNL:5,183,186
FNA:5,698,_ZN10CXMLReader10ReadEntityER10SXMLEntityb
FNL:6,27,35
FNA:6,346,_ZN10CXMLReader15SImplementation17EndElementHandlerEPvPKc
FNL:7,37,86
FNA:7,31,_ZN10CXMLReader15SImplementation20CharacterDataHandlerEPvPKci
FNL:8,88,96
FNA:8,45,_ZN10CXMLReader15SImplementationC2ESt10shared_ptrI11CDataSourceE
FNL:9,98,108
FNA:9,40,_ZNK10CXMLReader15SImplementation3EndEv
FNF:10
FNH:10
DA:13,358
DA:15,358
DA:16,358
DA:18,358
DA:19,358
DA:20,984
DA:22,626
DA:24,358
DA:25,358
DA:27,346
DA:29,346
DA:30,346
DA:32,346
DA:33,346
DA:34,346
DA:35,346
DA:37,31
DA:39,217
DA:43,31
DA:44,31
DA:45,31
DA:46,31
DA:48,31
DA:52,4524
DA:54,4493
DA:55,4493
DA:57,1
DA:59,0
DA:61,0
DA:64,1
DA:65,1
DA:67,1
DA:69,0
DA:71,1
DA:73,1
DA:74,1
DA:77,1
DA:81,4492
DA:84,31
DA:85,31
DA:86,62
DA:88,45
DA:89,45
DA:90,45
DA:91,45
DA:92,45
DA:93,45
DA:94,45
DA:95,45
DA:96,45
DA:98,40
DA:100,40
DA:102,3
DA:106,37
DA:110,704
DA:115,755
DA:117,51
DA:118,51
DA:120,51
DA:121,51
DA:123,704
DA:126,698
DA:128,689
DA:130,10
DA:133,679
DA:135,670
DA:136,670
DA:137,670
DA:144,19
DA:145,19
DA:147,19
DA:149,16
DA:151,13
DA:152,13
DA:154,3
DA:157,16
DA:160,15
DA:162,9
DA:164,6
DA:169,45
DA:171,45
DA:172,45
DA:174,45
DA:176,45
DA:178,40
DA:180,40
DA:183,698
DA:185,698
LF:88
LH:85
end_of_record
